Certificate:
    Data:
        Version: 3 (0x2)
        Serial Number: 0 (0x0)
        Signature Algorithm: sha1WithRSAEncryption
        Issuer: C=ar, ST=bsas, L=mdq, O=t, OU=t, CN=t/emailAddress=t@t.com
        Validity
            Not Before: Jun 25 13:03:25 2007 GMT
            Not After : Jun 24 13:03:25 2008 GMT
        Subject: C=ar, ST=bsas, O=t, OU=t, CN=t/emailAddress=t@t.com
        Subject Public Key Info:
            Public Key Algorithm: rsaEncryption
            RSA Public Key: (1024 bit)
                Modulus (1024 bit):
                    00:bf:98:7a:fb:e8:ec:b6:f7:4b:ed:d3:c9:ba:64:
                    19:84:6d:a4:18:f8:ab:98:ef:b2:a4:02:07:01:94:
                    36:e6:05:e2:81:49:45:ce:44:22:f8:05:c9:44:40:
                    57:c3:26:a0:a2:16:ed:35:bc:fa:22:8a:77:91:dd:
                    71:86:4b:f9:31:e9:f4:76:e8:b2:e6:64:78:c3:2f:
                    6f:49:53:98:03:d4:89:41:15:62:1c:fc:b7:19:4c:
                    98:8c:1a:6d:70:c5:c7:77:3e:a6:b4:b4:58:9c:07:
                    04:67:9d:05:f3:80:ba:a2:e7:ed:55:5f:1f:eb:36:
                    f8:1e:97:9c:1d:9e:cb:b3:e3
                Exponent: 65537 (0x10001)
        X509v3 extensions:
            X509v3 Basic Constraints: 
                CA:FALSE
            Netscape Comment: 
                OpenSSL Generated Certificate
            X509v3 Subject Key Identifier: 
                04:96:67:FB:5D:EA:71:7C:B5:26:40:39:2A:C6:6F:07:11:23:BB:0C
            X509v3 Authority Key Identifier: 
                keyid:AD:75:08:46:7B:5E:E4:4A:8F:E0:33:AC:E9:F3:92:5C:98:EB:74:24

    Signature Algorithm: sha1WithRSAEncryption
        83:03:19:4f:e7:9b:03:b7:0f:11:47:e7:c2:ec:e9:5a:3e:0b:
        fe:dc:66:2e:6e:45:6e:16:23:5e:4e:33:c3:c3:53:ab:e2:18:
        d5:7c:40:26:73:d2:b3:4f:d1:6d:72:9d:f7:f1:fc:28:50:b9:
        6d:f2:03:00:2b:d4:c9:be:7c:56:cb:00:17:56:ac:79:b8:67:
        7f:a0:47:a7:af:43:dd:eb:8e:da:6e:f4:67:4c:77:f3:f2:69:
        32:21:90:4f:d9:ae:5b:b5:e6:38:b4:9a:e6:99:94:da:59:40:
        ee:0c:b6:e4:ae:05:8c:2c:b3:98:8b:3d:92:7a:55:29:c6:a4:
        e3:22
-----BEGIN CERTIFICATE-----
MIICrzCCAhigAwIBAgIBADANBgkqhkiG9w0BAQUFADBmMQswCQYDVQQGEwJhcjEN
MAsGA1UECBMEYnNhczEMMAoGA1UEBxMDbWRxMQowCAYDVQQKEwF0MQowCAYDVQQL
EwF0MQowCAYDVQQDEwF0MRYwFAYJKoZIhvcNAQkBFgd0QHQuY29tMB4XDTA3MDYy
NTEzMDMyNVoXDTA4MDYyNDEzMDMyNVowWDELMAkGA1UEBhMCYXIxDTALBgNVBAgT
BGJzYXMxCjAIBgNVBAoTAXQxCjAIBgNVBAsTAXQxCjAIBgNVBAMTAXQxFjAUBgkq
hkiG9w0BCQEWB3RAdC5jb20wgZ8wDQYJKoZIhvcNAQEBBQADgY0AMIGJAoGBAL+Y
evvo7Lb3S+3TybpkGYRtpBj4q5jvsqQCBwGUNuYF4oFJRc5EIvgFyURAV8MmoKIW
7TW8+iKKd5HdcYZL+THp9HbosuZkeMMvb0lTmAPUiUEVYhz8txlMmIwabXDFx3c+
prS0WJwHBGedBfOAuqLn7VVfH+s2+B6XnB2ey7PjAgMBAAGjezB5MAkGA1UdEwQC
MAAwLAYJYIZIAYb4QgENBB8WHU9wZW5TU0wgR2VuZXJhdGVkIENlcnRpZmljYXRl
MB0GA1UdDgQWBBQElmf7XepxfLUmQDkqxm8HESO7DDAfBgNVHSMEGDAWgBStdQhG
e17kSo/gM6zp85JcmOt0JDANBgkqhkiG9w0BAQUFAAOBgQCDAxlP55sDtw8RR+fC
7OlaPgv+3GYubkVuFiNeTjPDw1Or4hjVfEAmc9KzT9Ftcp338fwoULlt8gMAK9TJ
vnxWywAXVqx5uGd/oEenr0Pd647abvRnTHfz8mkyIZBP2a5bteY4tJrmmZTaWUDu
DLbkrgWMLLOYiz2SelUpxqTjIg==
-----END CERTIFICATE-----
